target datalayout = "e-m:e-p270:32:32-p271:32:32-p272:64:64-i64:64-i128:128-f80:128-n8:16:32:64-S128"
target triple = "x86_64-pc-linux-gnu"

%struct._spdu_ipdum_mapping = type { i32, i32 }
%struct._autosar_ipdu_multiplexer = type { i32 }

@data_spdu_ipdum_mappings = internal global ptr null, align 8
@.str.311 = private unnamed_addr constant [29 x i8] c"%s:%u: failed assertion \22%s\22\00", align 1
@.str.312 = private unnamed_addr constant [36 x i8] c"epan/dissectors/packet-signal-pdu.c\00", align 1
@.str.331 = private unnamed_addr constant [9 x i8] c"pdu_info\00", align 1

; Function Attrs: null_pointer_is_valid sspstrong uwtable
define internal i32 @dissect_spdu_message_ipdum(ptr noundef %0, ptr noundef %1, ptr noundef %2, ptr noundef %3) #0 {
  %5 = alloca i32, align 4
  %6 = alloca ptr, align 8
  %7 = alloca ptr, align 8
  %8 = alloca ptr, align 8
  %9 = alloca ptr, align 8
  %10 = alloca ptr, align 8
  %11 = alloca i32, align 4
  %12 = alloca ptr, align 8
  store ptr %0, ptr %6, align 8
  store ptr %1, ptr %7, align 8
  store ptr %2, ptr %8, align 8
  store ptr %3, ptr %9, align 8
  call void @llvm.lifetime.start.p0(i64 8, ptr %10) #14
  %13 = load ptr, ptr %9, align 8
  store ptr %13, ptr %10, align 8
  %14 = load ptr, ptr %10, align 8
  %15 = icmp ne ptr %14, null
  br i1 %15, label %16, label %17

16:                                               ; preds = %4
  br label %19

17:                                               ; preds = %4
  call void (ptr, ...) @proto_report_dissector_bug(ptr noundef @.str.311, ptr noundef @.str.312, i32 noundef 2551, ptr noundef @.str.331) #18
  unreachable

18:                                               ; No predecessors!
  br label %19

19:                                               ; preds = %18, %16
  %20 = load ptr, ptr @data_spdu_ipdum_mappings, align 8
  %21 = icmp eq ptr %20, null
  br i1 %21, label %22, label %23

22:                                               ; preds = %19
  store i32 0, ptr %5, align 4
  store i32 1, ptr %11, align 4
  br label %43

23:                                               ; preds = %19
  call void @llvm.lifetime.start.p0(i64 8, ptr %12) #14
  %24 = load ptr, ptr @data_spdu_ipdum_mappings, align 8
  %25 = load ptr, ptr %10, align 8
  %26 = getelementptr inbounds nuw %struct._autosar_ipdu_multiplexer, ptr %25, i32 0, i32 0
  %27 = load i32, ptr %26, align 4
  %28 = zext i32 %27 to i64
  %29 = inttoptr i64 %28 to ptr
  %30 = call ptr @g_hash_table_lookup(ptr noundef %24, ptr noundef %29)
  store ptr %30, ptr %12, align 8
  %31 = load ptr, ptr %12, align 8
  %32 = icmp eq ptr %31, null
  br i1 %32, label %33, label %34

33:                                               ; preds = %23
  store i32 0, ptr %5, align 4
  store i32 1, ptr %11, align 4
  br label %42

34:                                               ; preds = %23
  %35 = load ptr, ptr %6, align 8
  %36 = load ptr, ptr %7, align 8
  %37 = load ptr, ptr %8, align 8
  %38 = load ptr, ptr %12, align 8
  %39 = getelementptr inbounds nuw %struct._spdu_ipdum_mapping, ptr %38, i32 0, i32 1
  %40 = load i32, ptr %39, align 4
  %41 = call i32 @dissect_spdu_payload(ptr noundef %35, ptr noundef %36, ptr noundef %37, i32 noundef %40, i1 noundef zeroext true)
  store i32 %41, ptr %5, align 4
  store i32 1, ptr %11, align 4
  br label %42

42:                                               ; preds = %34, %33
  call void @llvm.lifetime.end.p0(i64 8, ptr %12) #14
  br label %43

43:                                               ; preds = %42, %22
  call void @llvm.lifetime.end.p0(i64 8, ptr %10) #14
  %44 = load i32, ptr %5, align 4
  ret i32 %44
}