; Function Attrs: null_pointer_is_valid sspstrong uwtable
define internal i32 @dissect_spdu_message_ipdum(ptr noundef %0, ptr noundef %1, ptr noundef %2, ptr noundef readonly captures(address_is_null) %3) #0 {
  %.not = icmp eq ptr %3, null
  br i1 %.not, label %5, label %6

5:                                                ; preds = %4
  tail call void (ptr, ...) @proto_report_dissector_bug(ptr noundef nonnull @.str.311, ptr noundef nonnull @.str.312, i32 noundef 2551, ptr noundef nonnull @.str.331) #20
  unreachable

6:                                                ; preds = %4
  %7 = load ptr, ptr @data_spdu_ipdum_mappings, align 8
  %8 = icmp eq ptr %7, null
  br i1 %8, label %19, label %9

9:                                                ; preds = %6
  %10 = load i32, ptr %3, align 4
  %11 = zext i32 %10 to i64
  %12 = inttoptr i64 %11 to ptr
  %13 = tail call ptr @g_hash_table_lookup(ptr noundef nonnull %7, ptr noundef %12)
  %14 = icmp eq ptr %13, null
  br i1 %14, label %19, label %15

15:                                               ; preds = %9
  %16 = getelementptr inbounds nuw i8, ptr %13, i64 4
  %17 = load i32, ptr %16, align 4
  %18 = tail call fastcc i32 @dissect_spdu_payload(ptr noundef %0, ptr noundef %1, ptr noundef %2, i32 noundef %17, i1 noundef zeroext true)
  br label %19

19:                                               ; preds = %15, %9, %6
  %.0 = phi i32 [ 0, %6 ], [ %18, %15 ], [ 0, %9 ]
  ret i32 %.0
}